target datalayout = "e-m:e-p270:32:32-p271:32:32-p272:64:64-i64:64-i128:128-f80:128-n8:16:32:64-S128"
target triple = "x86_64-pc-linux-gnu"

%"class.llvm::StringRef" = type { ptr, i64 }
%"class.clang::OpenCLOptions" = type { %"class.llvm::StringMap" }
%"class.llvm::StringMap" = type { %"class.llvm::StringMapImpl" }
%"class.llvm::StringMapImpl" = type { ptr, i32, i32, i32, i32 }
%"class.llvm::StringMapConstIterator" = type { %"class.llvm::StringMapIterBase" }
%"class.llvm::StringMapIterBase" = type { ptr }
%"class.llvm::iterator_facade_base<llvm::StringMapConstIterator<clang::OpenCLOptions::OpenCLOptionInfo>, std::forward_iterator_tag, const llvm::StringMapEntry<clang::OpenCLOptions::OpenCLOptionInfo>>::PointerProxy" = type { ptr }
%"class.llvm::StringMapEntryStorage" = type <{ %"class.llvm::StringMapEntryBase", %"struct.clang::OpenCLOptions::OpenCLOptionInfo", [4 x i8] }>
%"class.llvm::StringMapEntryBase" = type { i64 }
%"struct.clang::OpenCLOptions::OpenCLOptionInfo" = type <{ i8, [3 x i8], i32, i32, i32, i8, i8, [2 x i8] }>

; Function Attrs: mustprogress nounwind uwtable
define linkonce_odr hidden noundef ptr @_ZN4llvm13StringMapImpl15getTombstoneValEv() #0 comdat align 2 {
  ret ptr inttoptr (i64 -8 to ptr)
}

; Function Attrs: mustprogress nounwind uwtable
define linkonce_odr hidden void @_ZN4llvm17StringMapIterBaseINS_22StringMapConstIteratorIN5clang13OpenCLOptions16OpenCLOptionInfoEEEKNS_14StringMapEntryIS4_EEE23AdvancePastEmptyBucketsEv(ptr noundef nonnull align 8 dereferenceable(8) %0) #0 comdat align 2 {
  %2 = alloca ptr, align 8
  store ptr %0, ptr %2, align 8
  %3 = load ptr, ptr %2, align 8
  br label %4

4:                                                ; preds = %17, %1
  %5 = getelementptr inbounds nuw %"class.llvm::StringMapIterBase", ptr %3, i32 0, i32 0
  %6 = load ptr, ptr %5, align 8
  %7 = load ptr, ptr %6, align 8
  %8 = icmp eq ptr %7, null
  br i1 %8, label %15, label %9

9:                                                ; preds = %4
  %10 = getelementptr inbounds nuw %"class.llvm::StringMapIterBase", ptr %3, i32 0, i32 0
  %11 = load ptr, ptr %10, align 8
  %12 = load ptr, ptr %11, align 8
  %13 = call noundef ptr @_ZN4llvm13StringMapImpl15getTombstoneValEv()
  %14 = icmp eq ptr %12, %13
  br label %15

15:                                               ; preds = %9, %4
  %16 = phi i1 [ true, %4 ], [ %14, %9 ]
  br i1 %16, label %17, label %21

17:                                               ; preds = %15
  %18 = getelementptr inbounds nuw %"class.llvm::StringMapIterBase", ptr %3, i32 0, i32 0
  %19 = load ptr, ptr %18, align 8
  %20 = getelementptr inbounds ptr, ptr %19, i32 1
  store ptr %20, ptr %18, align 8
  br label %4, !llvm.loop !8

21:                                               ; preds = %15
  ret void
}

; Function Attrs: mustprogress nounwind uwtable
define linkonce_odr hidden void @_ZN4llvm17StringMapIterBaseINS_22StringMapConstIteratorIN5clang13OpenCLOptions16OpenCLOptionInfoEEEKNS_14StringMapEntryIS4_EEEC2EPPNS_18StringMapEntryBaseEb(ptr noundef nonnull align 8 dereferenceable(8) %0, ptr noundef %1, i1 noundef zeroext %2) unnamed_addr #0 comdat align 2 {
  %4 = alloca ptr, align 8
  %5 = alloca ptr, align 8
  %6 = alloca i8, align 1
  store ptr %0, ptr %4, align 8
  store ptr %1, ptr %5, align 8
  %7 = zext i1 %2 to i8
  store i8 %7, ptr %6, align 1
  %8 = load ptr, ptr %4, align 8
  %9 = getelementptr inbounds nuw %"class.llvm::StringMapIterBase", ptr %8, i32 0, i32 0
  %10 = load ptr, ptr %5, align 8
  store ptr %10, ptr %9, align 8
  %11 = load i8, ptr %6, align 1
  %12 = trunc i8 %11 to i1
  br i1 %12, label %14, label %13

13:                                               ; preds = %3
  call void @_ZN4llvm17StringMapIterBaseINS_22StringMapConstIteratorIN5clang13OpenCLOptions16OpenCLOptionInfoEEEKNS_14StringMapEntryIS4_EEE23AdvancePastEmptyBucketsEv(ptr noundef nonnull align 8 dereferenceable(8) %8)
  br label %14

14:                                               ; preds = %13, %3
  ret void
}

; Function Attrs: mustprogress nounwind uwtable
define linkonce_odr hidden void @_ZN4llvm20iterator_facade_baseINS_22StringMapConstIteratorIN5clang13OpenCLOptions16OpenCLOptionInfoEEESt20forward_iterator_tagKNS_14StringMapEntryIS4_EElPS9_RS9_E12PointerProxyC2ISB_EEOT_(ptr noundef nonnull align 8 dereferenceable(8) %0, ptr noundef nonnull align 8 dereferenceable(32) %1) unnamed_addr #0 comdat align 2 {
  %3 = alloca ptr, align 8
  %4 = alloca ptr, align 8
  store ptr %0, ptr %3, align 8
  store ptr %1, ptr %4, align 8
  %5 = load ptr, ptr %3, align 8
  %6 = getelementptr inbounds nuw %"class.llvm::iterator_facade_base<llvm::StringMapConstIterator<clang::OpenCLOptions::OpenCLOptionInfo>, std::forward_iterator_tag, const llvm::StringMapEntry<clang::OpenCLOptions::OpenCLOptionInfo>>::PointerProxy", ptr %5, i32 0, i32 0
  %7 = load ptr, ptr %4, align 8
  store ptr %7, ptr %6, align 8
  ret void
}

; Function Attrs: mustprogress nounwind uwtable
define linkonce_odr hidden noundef nonnull align 8 dereferenceable(32) ptr @_ZNK4llvm22StringMapConstIteratorIN5clang13OpenCLOptions16OpenCLOptionInfoEEdeEv(ptr noundef nonnull align 8 dereferenceable(8) %0) #0 comdat align 2 {
  %2 = alloca ptr, align 8
  store ptr %0, ptr %2, align 8
  %3 = load ptr, ptr %2, align 8
  %4 = getelementptr inbounds nuw %"class.llvm::StringMapIterBase", ptr %3, i32 0, i32 0
  %5 = load ptr, ptr %4, align 8
  %6 = load ptr, ptr %5, align 8
  ret ptr %6
}

; Function Attrs: mustprogress nounwind uwtable
define linkonce_odr hidden noundef zeroext i1 @_ZN4llvmeqERKNS_22StringMapConstIteratorIN5clang13OpenCLOptions16OpenCLOptionInfoEEES6_(ptr noundef nonnull align 8 dereferenceable(8) %0, ptr noundef nonnull align 8 dereferenceable(8) %1) #0 comdat {
  %3 = alloca ptr, align 8
  %4 = alloca ptr, align 8
  store ptr %0, ptr %3, align 8
  store ptr %1, ptr %4, align 8
  %5 = load ptr, ptr %3, align 8
  %6 = getelementptr inbounds nuw %"class.llvm::StringMapIterBase", ptr %5, i32 0, i32 0
  %7 = load ptr, ptr %6, align 8
  %8 = load ptr, ptr %4, align 8
  %9 = getelementptr inbounds nuw %"class.llvm::StringMapIterBase", ptr %8, i32 0, i32 0
  %10 = load ptr, ptr %9, align 8
  %11 = icmp eq ptr %7, %10
  ret i1 %11
}

; Function Attrs: mustprogress nounwind uwtable
define linkonce_odr hidden void @_ZN4llvm22StringMapConstIteratorIN5clang13OpenCLOptions16OpenCLOptionInfoEEC2EPPNS_18StringMapEntryBaseEb(ptr noundef nonnull align 8 dereferenceable(8) %0, ptr noundef %1, i1 noundef zeroext %2) unnamed_addr #0 comdat align 2 {
  %4 = alloca ptr, align 8
  %5 = alloca ptr, align 8
  %6 = alloca i8, align 1
  store ptr %0, ptr %4, align 8
  store ptr %1, ptr %5, align 8
  %7 = zext i1 %2 to i8
  store i8 %7, ptr %6, align 1
  %8 = load ptr, ptr %4, align 8
  %9 = load ptr, ptr %5, align 8
  %10 = load i8, ptr %6, align 1
  %11 = trunc i8 %10 to i1
  call void @_ZN4llvm17StringMapIterBaseINS_22StringMapConstIteratorIN5clang13OpenCLOptions16OpenCLOptionInfoEEEKNS_14StringMapEntryIS4_EEEC2EPPNS_18StringMapEntryBaseEb(ptr noundef nonnull align 8 dereferenceable(8) %8, ptr noundef %9, i1 noundef zeroext %11)
  ret void
}

; Function Attrs: mustprogress nounwind uwtable
define linkonce_odr hidden ptr @_ZNK4llvm9StringMapIN5clang13OpenCLOptions16OpenCLOptionInfoENS_15MallocAllocatorEE4findENS_9StringRefEj(ptr noundef nonnull align 8 dereferenceable(24) %0, ptr %1, i64 %2, i32 noundef %3) #0 comdat align 2 {
  %5 = alloca %"class.llvm::StringMapConstIterator", align 8
  %6 = alloca %"class.llvm::StringRef", align 8
  %7 = alloca ptr, align 8
  %8 = alloca i32, align 4
  %9 = alloca i32, align 4
  %10 = alloca %"class.llvm::StringRef", align 8
  %11 = getelementptr inbounds nuw { ptr, i64 }, ptr %6, i32 0, i32 0
  store ptr %1, ptr %11, align 8
  %12 = getelementptr inbounds nuw { ptr, i64 }, ptr %6, i32 0, i32 1
  store i64 %2, ptr %12, align 8
  store ptr %0, ptr %7, align 8
  store i32 %3, ptr %8, align 4
  %13 = load ptr, ptr %7, align 8
  call void @llvm.memcpy.p0.p0.i64(ptr align 8 %10, ptr align 8 %6, i64 16, i1 false)
  %14 = load i32, ptr %8, align 4
  %15 = getelementptr inbounds nuw { ptr, i64 }, ptr %10, i32 0, i32 0
  %16 = load ptr, ptr %15, align 8
  %17 = getelementptr inbounds nuw { ptr, i64 }, ptr %10, i32 0, i32 1
  %18 = load i64, ptr %17, align 8
  %19 = call noundef i32 @_ZNK4llvm13StringMapImpl7FindKeyENS_9StringRefEj(ptr noundef nonnull align 8 dereferenceable(24) %13, ptr %16, i64 %18, i32 noundef %14)
  store i32 %19, ptr %9, align 4
  %20 = load i32, ptr %9, align 4
  %21 = icmp eq i32 %20, -1
  br i1 %21, label %22, label %26

22:                                               ; preds = %4
  %23 = call ptr @_ZNK4llvm9StringMapIN5clang13OpenCLOptions16OpenCLOptionInfoENS_15MallocAllocatorEE3endEv(ptr noundef nonnull align 8 dereferenceable(24) %13)
  %24 = getelementptr inbounds nuw %"class.llvm::StringMapConstIterator", ptr %5, i32 0, i32 0
  %25 = getelementptr inbounds nuw %"class.llvm::StringMapIterBase", ptr %24, i32 0, i32 0
  store ptr %23, ptr %25, align 8
  br label %32

26:                                               ; preds = %4
  %27 = getelementptr inbounds nuw %"class.llvm::StringMapImpl", ptr %13, i32 0, i32 0
  %28 = load ptr, ptr %27, align 8
  %29 = load i32, ptr %9, align 4
  %30 = sext i32 %29 to i64
  %31 = getelementptr inbounds ptr, ptr %28, i64 %30
  call void @_ZN4llvm22StringMapConstIteratorIN5clang13OpenCLOptions16OpenCLOptionInfoEEC2EPPNS_18StringMapEntryBaseEb(ptr noundef nonnull align 8 dereferenceable(8) %5, ptr noundef %31, i1 noundef zeroext true)
  br label %32

32:                                               ; preds = %26, %22
  %33 = getelementptr inbounds nuw %"class.llvm::StringMapConstIterator", ptr %5, i32 0, i32 0
  %34 = getelementptr inbounds nuw %"class.llvm::StringMapIterBase", ptr %33, i32 0, i32 0
  %35 = load ptr, ptr %34, align 8
  ret ptr %35
}

; Function Attrs: mustprogress nounwind uwtable
define linkonce_odr hidden noundef ptr @_ZNK4llvm20iterator_facade_baseINS_22StringMapConstIteratorIN5clang13OpenCLOptions16OpenCLOptionInfoEEESt20forward_iterator_tagKNS_14StringMapEntryIS4_EElPS9_RS9_E12PointerProxyptEv(ptr noundef nonnull align 8 dereferenceable(8) %0) #0 comdat align 2 {
  %2 = alloca ptr, align 8
  store ptr %0, ptr %2, align 8
  %3 = load ptr, ptr %2, align 8
  %4 = getelementptr inbounds nuw %"class.llvm::iterator_facade_base<llvm::StringMapConstIterator<clang::OpenCLOptions::OpenCLOptionInfo>, std::forward_iterator_tag, const llvm::StringMapEntry<clang::OpenCLOptions::OpenCLOptionInfo>>::PointerProxy", ptr %3, i32 0, i32 0
  %5 = load ptr, ptr %4, align 8
  ret ptr %5
}

; Function Attrs: mustprogress nounwind uwtable
define linkonce_odr hidden ptr @_ZNK4llvm20iterator_facade_baseINS_22StringMapConstIteratorIN5clang13OpenCLOptions16OpenCLOptionInfoEEESt20forward_iterator_tagKNS_14StringMapEntryIS4_EElPS9_RS9_EptEv(ptr noundef nonnull align 1 dereferenceable(1) %0) #0 comdat align 2 {
  %2 = alloca %"class.llvm::iterator_facade_base<llvm::StringMapConstIterator<clang::OpenCLOptions::OpenCLOptionInfo>, std::forward_iterator_tag, const llvm::StringMapEntry<clang::OpenCLOptions::OpenCLOptionInfo>>::PointerProxy", align 8
  %3 = alloca ptr, align 8
  store ptr %0, ptr %3, align 8
  %4 = load ptr, ptr %3, align 8
  %5 = call noundef nonnull align 8 dereferenceable(32) ptr @_ZNK4llvm22StringMapConstIteratorIN5clang13OpenCLOptions16OpenCLOptionInfoEEdeEv(ptr noundef nonnull align 8 dereferenceable(8) %4)
  call void @_ZN4llvm20iterator_facade_baseINS_22StringMapConstIteratorIN5clang13OpenCLOptions16OpenCLOptionInfoEEESt20forward_iterator_tagKNS_14StringMapEntryIS4_EElPS9_RS9_E12PointerProxyC2ISB_EEOT_(ptr noundef nonnull align 8 dereferenceable(8) %2, ptr noundef nonnull align 8 dereferenceable(32) %5)
  %6 = getelementptr inbounds nuw %"class.llvm::iterator_facade_base<llvm::StringMapConstIterator<clang::OpenCLOptions::OpenCLOptionInfo>, std::forward_iterator_tag, const llvm::StringMapEntry<clang::OpenCLOptions::OpenCLOptionInfo>>::PointerProxy", ptr %2, i32 0, i32 0
  %7 = load ptr, ptr %6, align 8
  ret ptr %7
}

; Function Attrs: mustprogress nounwind uwtable
define linkonce_odr hidden noundef zeroext i1 @_ZNK4llvm20iterator_facade_baseINS_22StringMapConstIteratorIN5clang13OpenCLOptions16OpenCLOptionInfoEEESt20forward_iterator_tagKNS_14StringMapEntryIS4_EElPS9_RS9_EneERKS5_(ptr noundef nonnull align 1 dereferenceable(1) %0, ptr noundef nonnull align 8 dereferenceable(8) %1) #0 comdat align 2 {
  %3 = alloca ptr, align 8
  %4 = alloca ptr, align 8
  store ptr %0, ptr %3, align 8
  store ptr %1, ptr %4, align 8
  %5 = load ptr, ptr %3, align 8
  %6 = load ptr, ptr %4, align 8
  %7 = call noundef zeroext i1 @_ZN4llvmeqERKNS_22StringMapConstIteratorIN5clang13OpenCLOptions16OpenCLOptionInfoEEES6_(ptr noundef nonnull align 8 dereferenceable(8) %5, ptr noundef nonnull align 8 dereferenceable(8) %6)
  %8 = xor i1 %7, true
  ret i1 %8
}

; Function Attrs: mustprogress nounwind uwtable
define linkonce_odr hidden ptr @_ZNK4llvm9StringMapIN5clang13OpenCLOptions16OpenCLOptionInfoENS_15MallocAllocatorEE3endEv(ptr noundef nonnull align 8 dereferenceable(24) %0) #0 comdat align 2 {
  %2 = alloca %"class.llvm::StringMapConstIterator", align 8
  %3 = alloca ptr, align 8
  store ptr %0, ptr %3, align 8
  %4 = load ptr, ptr %3, align 8
  %5 = getelementptr inbounds nuw %"class.llvm::StringMapImpl", ptr %4, i32 0, i32 0
  %6 = load ptr, ptr %5, align 8
  %7 = getelementptr inbounds nuw %"class.llvm::StringMapImpl", ptr %4, i32 0, i32 1
  %8 = load i32, ptr %7, align 8
  %9 = zext i32 %8 to i64
  %10 = getelementptr inbounds ptr, ptr %6, i64 %9
  call void @_ZN4llvm22StringMapConstIteratorIN5clang13OpenCLOptions16OpenCLOptionInfoEEC2EPPNS_18StringMapEntryBaseEb(ptr noundef nonnull align 8 dereferenceable(8) %2, ptr noundef %10, i1 noundef zeroext true)
  %11 = getelementptr inbounds nuw %"class.llvm::StringMapConstIterator", ptr %2, i32 0, i32 0
  %12 = getelementptr inbounds nuw %"class.llvm::StringMapIterBase", ptr %11, i32 0, i32 0
  %13 = load ptr, ptr %12, align 8
  ret ptr %13
}

; Function Attrs: mustprogress nounwind uwtable
define linkonce_odr hidden ptr @_ZNK4llvm9StringMapIN5clang13OpenCLOptions16OpenCLOptionInfoENS_15MallocAllocatorEE4findENS_9StringRefE(ptr noundef nonnull align 8 dereferenceable(24) %0, ptr %1, i64 %2) #0 comdat align 2 {
  %4 = alloca %"class.llvm::StringMapConstIterator", align 8
  %5 = alloca %"class.llvm::StringRef", align 8
  %6 = alloca ptr, align 8
  %7 = alloca %"class.llvm::StringRef", align 8
  %8 = alloca %"class.llvm::StringRef", align 8
  %9 = getelementptr inbounds nuw { ptr, i64 }, ptr %5, i32 0, i32 0
  store ptr %1, ptr %9, align 8
  %10 = getelementptr inbounds nuw { ptr, i64 }, ptr %5, i32 0, i32 1
  store i64 %2, ptr %10, align 8
  store ptr %0, ptr %6, align 8
  %11 = load ptr, ptr %6, align 8
  call void @llvm.memcpy.p0.p0.i64(ptr align 8 %7, ptr align 8 %5, i64 16, i1 false)
  call void @llvm.memcpy.p0.p0.i64(ptr align 8 %8, ptr align 8 %5, i64 16, i1 false)
  %12 = getelementptr inbounds nuw { ptr, i64 }, ptr %8, i32 0, i32 0
  %13 = load ptr, ptr %12, align 8
  %14 = getelementptr inbounds nuw { ptr, i64 }, ptr %8, i32 0, i32 1
  %15 = load i64, ptr %14, align 8
  %16 = call noundef i32 @_ZN4llvm13StringMapImpl4hashENS_9StringRefE(ptr %13, i64 %15)
  %17 = getelementptr inbounds nuw { ptr, i64 }, ptr %7, i32 0, i32 0
  %18 = load ptr, ptr %17, align 8
  %19 = getelementptr inbounds nuw { ptr, i64 }, ptr %7, i32 0, i32 1
  %20 = load i64, ptr %19, align 8
  %21 = call ptr @_ZNK4llvm9StringMapIN5clang13OpenCLOptions16OpenCLOptionInfoENS_15MallocAllocatorEE4findENS_9StringRefEj(ptr noundef nonnull align 8 dereferenceable(24) %11, ptr %18, i64 %20, i32 noundef %16)
  %22 = getelementptr inbounds nuw %"class.llvm::StringMapConstIterator", ptr %4, i32 0, i32 0
  %23 = getelementptr inbounds nuw %"class.llvm::StringMapIterBase", ptr %22, i32 0, i32 0
  store ptr %21, ptr %23, align 8
  %24 = getelementptr inbounds nuw %"class.llvm::StringMapConstIterator", ptr %4, i32 0, i32 0
  %25 = getelementptr inbounds nuw %"class.llvm::StringMapIterBase", ptr %24, i32 0, i32 0
  %26 = load ptr, ptr %25, align 8
  ret ptr %26
}

; Function Attrs: mustprogress nounwind uwtable
define dso_local noundef zeroext i1 @_ZNK5clang13OpenCLOptions12isWithPragmaEN4llvm9StringRefE(ptr noundef nonnull align 8 dereferenceable(24) %0, ptr %1, i64 %2) #0 align 2 {
  %4 = alloca %"class.llvm::StringRef", align 8
  %5 = alloca ptr, align 8
  %6 = alloca %"class.llvm::StringMapConstIterator", align 8
  %7 = alloca %"class.llvm::StringRef", align 8
  %8 = alloca %"class.llvm::StringMapConstIterator", align 8
  %9 = alloca %"class.llvm::iterator_facade_base<llvm::StringMapConstIterator<clang::OpenCLOptions::OpenCLOptionInfo>, std::forward_iterator_tag, const llvm::StringMapEntry<clang::OpenCLOptions::OpenCLOptionInfo>>::PointerProxy", align 8
  %10 = getelementptr inbounds nuw { ptr, i64 }, ptr %4, i32 0, i32 0
  store ptr %1, ptr %10, align 8
  %11 = getelementptr inbounds nuw { ptr, i64 }, ptr %4, i32 0, i32 1
  store i64 %2, ptr %11, align 8
  store ptr %0, ptr %5, align 8
  %12 = load ptr, ptr %5, align 8
  %13 = getelementptr inbounds nuw %"class.clang::OpenCLOptions", ptr %12, i32 0, i32 0
  call void @llvm.memcpy.p0.p0.i64(ptr align 8 %7, ptr align 8 %4, i64 16, i1 false)
  %14 = getelementptr inbounds nuw { ptr, i64 }, ptr %7, i32 0, i32 0
  %15 = load ptr, ptr %14, align 8
  %16 = getelementptr inbounds nuw { ptr, i64 }, ptr %7, i32 0, i32 1
  %17 = load i64, ptr %16, align 8
  %18 = call ptr @_ZNK4llvm9StringMapIN5clang13OpenCLOptions16OpenCLOptionInfoENS_15MallocAllocatorEE4findENS_9StringRefE(ptr noundef nonnull align 8 dereferenceable(24) %13, ptr %15, i64 %17)
  %19 = getelementptr inbounds nuw %"class.llvm::StringMapConstIterator", ptr %6, i32 0, i32 0
  %20 = getelementptr inbounds nuw %"class.llvm::StringMapIterBase", ptr %19, i32 0, i32 0
  store ptr %18, ptr %20, align 8
  %21 = getelementptr inbounds nuw %"class.clang::OpenCLOptions", ptr %12, i32 0, i32 0
  %22 = call ptr @_ZNK4llvm9StringMapIN5clang13OpenCLOptions16OpenCLOptionInfoENS_15MallocAllocatorEE3endEv(ptr noundef nonnull align 8 dereferenceable(24) %21)
  %23 = getelementptr inbounds nuw %"class.llvm::StringMapConstIterator", ptr %8, i32 0, i32 0
  %24 = getelementptr inbounds nuw %"class.llvm::StringMapIterBase", ptr %23, i32 0, i32 0
  store ptr %22, ptr %24, align 8
  %25 = call noundef zeroext i1 @_ZNK4llvm20iterator_facade_baseINS_22StringMapConstIteratorIN5clang13OpenCLOptions16OpenCLOptionInfoEEESt20forward_iterator_tagKNS_14StringMapEntryIS4_EElPS9_RS9_EneERKS5_(ptr noundef nonnull align 1 dereferenceable(1) %6, ptr noundef nonnull align 8 dereferenceable(8) %8)
  br i1 %25, label %26, label %34

26:                                               ; preds = %3
  %27 = call ptr @_ZNK4llvm20iterator_facade_baseINS_22StringMapConstIteratorIN5clang13OpenCLOptions16OpenCLOptionInfoEEESt20forward_iterator_tagKNS_14StringMapEntryIS4_EElPS9_RS9_EptEv(ptr noundef nonnull align 1 dereferenceable(1) %6)
  %28 = getelementptr inbounds nuw %"class.llvm::iterator_facade_base<llvm::StringMapConstIterator<clang::OpenCLOptions::OpenCLOptionInfo>, std::forward_iterator_tag, const llvm::StringMapEntry<clang::OpenCLOptions::OpenCLOptionInfo>>::PointerProxy", ptr %9, i32 0, i32 0
  store ptr %27, ptr %28, align 8
  %29 = call noundef ptr @_ZNK4llvm20iterator_facade_baseINS_22StringMapConstIteratorIN5clang13OpenCLOptions16OpenCLOptionInfoEEESt20forward_iterator_tagKNS_14StringMapEntryIS4_EElPS9_RS9_E12PointerProxyptEv(ptr noundef nonnull align 8 dereferenceable(8) %9)
  %30 = getelementptr inbounds nuw %"class.llvm::StringMapEntryStorage", ptr %29, i32 0, i32 1
  %31 = getelementptr inbounds nuw %"struct.clang::OpenCLOptions::OpenCLOptionInfo", ptr %30, i32 0, i32 0
  %32 = load i8, ptr %31, align 8
  %33 = trunc i8 %32 to i1
  br label %34

34:                                               ; preds = %26, %3
  %35 = phi i1 [ false, %3 ], [ %33, %26 ]
  ret i1 %35
}