; Function Attrs: mustprogress nounwind uwtable
define dso_local noundef zeroext i1 @_ZNK5clang13OpenCLOptions12isWithPragmaEN4llvm9StringRefE(ptr noundef nonnull align 8 dereferenceable(24) %0, ptr %1, i64 %2) local_unnamed_addr #0 align 2 {
  %4 = tail call noundef i32 @_ZN4llvm13StringMapImpl4hashENS_9StringRefE(ptr %1, i64 %2) #11
  %5 = tail call noundef i32 @_ZNK4llvm13StringMapImpl7FindKeyENS_9StringRefEj(ptr noundef nonnull align 8 dereferenceable(24) %0, ptr %1, i64 %2, i32 noundef %4) #11
  %6 = icmp eq i32 %5, -1
  %7 = getelementptr inbounds nuw i8, ptr %0, i64 8
  %8 = load i32, ptr %7, align 8
  %9 = zext i32 %8 to i64
  %10 = sext i32 %5 to i64
  %.not6 = icmp eq i64 %10, %9
  %.not = select i1 %6, i1 true, i1 %.not6
  br i1 %.not, label %17, label %11

11:                                               ; preds = %3
  %12 = load ptr, ptr %0, align 8
  %.sroa.0.0.i.i = getelementptr inbounds ptr, ptr %12, i64 %10
  %13 = load ptr, ptr %.sroa.0.0.i.i, align 8
  %14 = getelementptr inbounds nuw i8, ptr %13, i64 8
  %15 = load i8, ptr %14, align 8
  %16 = trunc i8 %15 to i1
  br label %17

17:                                               ; preds = %11, %3
  %18 = phi i1 [ false, %3 ], [ %16, %11 ]
  ret i1 %18
}